target datalayout = "e-m:e-p270:32:32-p271:32:32-p272:64:64-i64:64-i128:128-f80:128-n8:16:32:64-S128"
target triple = "x86_64-pc-linux-gnu"

%struct.IPSourceFilters = type { i32, i32, ptr, ptr }

@.str.4 = private unnamed_addr constant [66 x i8] c"Simultaneously including and excluding sources is not supported.\0A\00", align 1

; Function Attrs: nounwind uwtable
define internal i32 @ip_parse_sources_and_blocks(ptr noundef %0, ptr noundef %1, ptr noundef %2, i32 noundef %3) #0 {
  %5 = alloca i32, align 4
  %6 = alloca ptr, align 8
  %7 = alloca ptr, align 8
  %8 = alloca ptr, align 8
  %9 = alloca i32, align 4
  %10 = alloca i32, align 4
  %11 = alloca i32, align 4
  store ptr %0, ptr %6, align 8, !tbaa !30
  store ptr %1, ptr %7, align 8, !tbaa !28
  store ptr %2, ptr %8, align 8, !tbaa !9
  store i32 %3, ptr %9, align 4, !tbaa !14
  call void @llvm.lifetime.start.p0(i64 4, ptr %10) #7
  %12 = load i32, ptr %9, align 4, !tbaa !14
  %13 = icmp ne i32 %12, 0
  br i1 %13, label %14, label %22

14:                                               ; preds = %4
  %15 = load ptr, ptr %6, align 8, !tbaa !30
  %16 = load ptr, ptr %7, align 8, !tbaa !28
  %17 = load ptr, ptr %8, align 8, !tbaa !9
  %18 = getelementptr inbounds nuw %struct.IPSourceFilters, ptr %17, i32 0, i32 2
  %19 = load ptr, ptr %8, align 8, !tbaa !9
  %20 = getelementptr inbounds nuw %struct.IPSourceFilters, ptr %19, i32 0, i32 0
  %21 = call i32 @ip_parse_addr_list(ptr noundef %15, ptr noundef %16, ptr noundef %18, ptr noundef %20)
  store i32 %21, ptr %10, align 4, !tbaa !14
  br label %30

22:                                               ; preds = %4
  %23 = load ptr, ptr %6, align 8, !tbaa !30
  %24 = load ptr, ptr %7, align 8, !tbaa !28
  %25 = load ptr, ptr %8, align 8, !tbaa !9
  %26 = getelementptr inbounds nuw %struct.IPSourceFilters, ptr %25, i32 0, i32 3
  %27 = load ptr, ptr %8, align 8, !tbaa !9
  %28 = getelementptr inbounds nuw %struct.IPSourceFilters, ptr %27, i32 0, i32 1
  %29 = call i32 @ip_parse_addr_list(ptr noundef %23, ptr noundef %24, ptr noundef %26, ptr noundef %28)
  store i32 %29, ptr %10, align 4, !tbaa !14
  br label %30

30:                                               ; preds = %22, %14
  %31 = load i32, ptr %10, align 4, !tbaa !14
  %32 = icmp sge i32 %31, 0
  br i1 %32, label %33, label %45

33:                                               ; preds = %30
  %34 = load ptr, ptr %8, align 8, !tbaa !9
  %35 = getelementptr inbounds nuw %struct.IPSourceFilters, ptr %34, i32 0, i32 0
  %36 = load i32, ptr %35, align 8, !tbaa !18
  %37 = icmp ne i32 %36, 0
  br i1 %37, label %38, label %45

38:                                               ; preds = %33
  %39 = load ptr, ptr %8, align 8, !tbaa !9
  %40 = getelementptr inbounds nuw %struct.IPSourceFilters, ptr %39, i32 0, i32 1
  %41 = load i32, ptr %40, align 4, !tbaa !11
  %42 = icmp ne i32 %41, 0
  br i1 %42, label %43, label %45

43:                                               ; preds = %38
  %44 = load ptr, ptr %6, align 8, !tbaa !30
  call void (ptr, i32, ptr, ...) @av_log(ptr noundef %44, i32 noundef 16, ptr noundef @.str.4)
  store i32 -22, ptr %5, align 4
  store i32 1, ptr %11, align 4
  br label %47

45:                                               ; preds = %38, %33, %30
  %46 = load i32, ptr %10, align 4, !tbaa !14
  store i32 %46, ptr %5, align 4
  store i32 1, ptr %11, align 4
  br label %47

47:                                               ; preds = %45, %43
  call void @llvm.lifetime.end.p0(i64 4, ptr %10) #7
  %48 = load i32, ptr %5, align 4
  ret i32 %48
}

; Function Attrs: nounwind uwtable
define i32 @ff_ip_parse_blocks(ptr noundef %0, ptr noundef %1, ptr noundef %2) #0 {
  %4 = alloca ptr, align 8
  %5 = alloca ptr, align 8
  %6 = alloca ptr, align 8
  store ptr %0, ptr %4, align 8, !tbaa !30
  store ptr %1, ptr %5, align 8, !tbaa !28
  store ptr %2, ptr %6, align 8, !tbaa !9
  %7 = load ptr, ptr %4, align 8, !tbaa !30
  %8 = load ptr, ptr %5, align 8, !tbaa !28
  %9 = load ptr, ptr %6, align 8, !tbaa !9
  %10 = call i32 @ip_parse_sources_and_blocks(ptr noundef %7, ptr noundef %8, ptr noundef %9, i32 noundef 0)
  ret i32 %10
}