; Function Attrs: nounwind uwtable
define range(i32 -22, 1) i32 @ff_ip_parse_blocks(ptr noundef %0, ptr noundef %1, ptr noundef %2) local_unnamed_addr #2 {
  %4 = getelementptr inbounds nuw i8, ptr %2, i64 16
  %5 = getelementptr inbounds nuw i8, ptr %2, i64 4
  %6 = tail call fastcc i32 @ip_parse_addr_list(ptr noundef %0, ptr noundef %1, ptr noundef nonnull %4, ptr noundef nonnull %5)
  %7 = icmp sgt i32 %6, -1
  br i1 %7, label %8, label %ip_parse_sources_and_blocks.exit

8:                                                ; preds = %3
  %9 = load i32, ptr %2, align 8, !tbaa !21
  %.not15.i = icmp eq i32 %9, 0
  br i1 %.not15.i, label %ip_parse_sources_and_blocks.exit, label %10

10:                                               ; preds = %8
  %11 = load i32, ptr %5, align 4, !tbaa !4
  %.not16.i = icmp eq i32 %11, 0
  br i1 %.not16.i, label %ip_parse_sources_and_blocks.exit, label %12

12:                                               ; preds = %10
  tail call void (ptr, i32, ptr, ...) @av_log(ptr noundef %0, i32 noundef 16, ptr noundef nonnull @.str.4) #9
  br label %ip_parse_sources_and_blocks.exit

ip_parse_sources_and_blocks.exit:                 ; preds = %3, %8, %10, %12
  %.014.i = phi i32 [ -22, %12 ], [ 0, %10 ], [ 0, %8 ], [ %6, %3 ]
  ret i32 %.014.i
}